target datalayout = "e-m:e-p270:32:32-p271:32:32-p272:64:64-i64:64-i128:128-f80:128-n8:16:32:64-S128"
target triple = "x86_64-pc-linux-gnu"

%"class.std::__cxx11::basic_string" = type { %"struct.std::__cxx11::basic_string<char>::_Alloc_hider", i64, %union.anon }
%"struct.std::__cxx11::basic_string<char>::_Alloc_hider" = type { ptr }
%union.anon = type { i64, [8 x i8] }
%"class.absl::debian2::AlphaNum" = type { %"class.absl::debian2::string_view", [32 x i8] }
%"class.absl::debian2::string_view" = type { ptr, i64 }
%"class.std::initializer_list.6" = type { ptr, i64 }

; Function Attrs: mustprogress nounwind uwtable
define linkonce_odr dso_local { ptr, i64 } @_ZNK4absl7debian28AlphaNum5PieceEv(ptr noundef nonnull align 8 dereferenceable(48) %0) #1 comdat align 2 {
  %2 = alloca %"class.absl::debian2::string_view", align 8
  %3 = alloca ptr, align 8
  store ptr %0, ptr %3, align 8, !tbaa !11
  %4 = load ptr, ptr %3, align 8
  %5 = getelementptr inbounds nuw %"class.absl::debian2::AlphaNum", ptr %4, i32 0, i32 0
  call void @llvm.memcpy.p0.p0.i64(ptr align 8 %2, ptr align 8 %5, i64 16, i1 false), !tbaa.struct !24
  %6 = load { ptr, i64 }, ptr %2, align 8
  ret { ptr, i64 } %6
}

; Function Attrs: inlinehint mustprogress uwtable
define linkonce_odr dso_local void @_ZN4absl7debian26StrCatIJN4i18n12phonenumbers12StringHolderES4_S4_S4_EEENSt7__cxx1112basic_stringIcSt11char_traitsIcESaIcEEERKNS0_8AlphaNumESD_SD_SD_SD_DpRKT_(ptr dead_on_unwind noalias writable sret(%"class.std::__cxx11::basic_string") align 8 %0, ptr noundef nonnull align 8 dereferenceable(48) %1, ptr noundef nonnull align 8 dereferenceable(48) %2, ptr noundef nonnull align 8 dereferenceable(48) %3, ptr noundef nonnull align 8 dereferenceable(48) %4, ptr noundef nonnull align 8 dereferenceable(48) %5, ptr noundef nonnull align 8 dereferenceable(48) %6, ptr noundef nonnull align 8 dereferenceable(48) %7, ptr noundef nonnull align 8 dereferenceable(48) %8, ptr noundef nonnull align 8 dereferenceable(48) %9) #4 comdat {
  %11 = alloca ptr, align 8
  %12 = alloca ptr, align 8
  %13 = alloca ptr, align 8
  %14 = alloca ptr, align 8
  %15 = alloca ptr, align 8
  %16 = alloca ptr, align 8
  %17 = alloca ptr, align 8
  %18 = alloca ptr, align 8
  %19 = alloca ptr, align 8
  %20 = alloca ptr, align 8
  %21 = alloca %"class.std::initializer_list.6", align 8
  %22 = alloca [9 x %"class.absl::debian2::string_view"], align 8
  store ptr %0, ptr %11, align 8
  store ptr %1, ptr %12, align 8, !tbaa !11
  store ptr %2, ptr %13, align 8, !tbaa !11
  store ptr %3, ptr %14, align 8, !tbaa !11
  store ptr %4, ptr %15, align 8, !tbaa !11
  store ptr %5, ptr %16, align 8, !tbaa !11
  store ptr %6, ptr %17, align 8, !tbaa !70
  store ptr %7, ptr %18, align 8, !tbaa !70
  store ptr %8, ptr %19, align 8, !tbaa !70
  store ptr %9, ptr %20, align 8, !tbaa !70
  call void @llvm.lifetime.start.p0(i64 144, ptr %22) #16
  %23 = load ptr, ptr %12, align 8, !tbaa !11
  %24 = call { ptr, i64 } @_ZNK4absl7debian28AlphaNum5PieceEv(ptr noundef nonnull align 8 dereferenceable(48) %23)
  %25 = getelementptr inbounds nuw { ptr, i64 }, ptr %22, i32 0, i32 0
  %26 = extractvalue { ptr, i64 } %24, 0
  store ptr %26, ptr %25, align 8
  %27 = getelementptr inbounds nuw { ptr, i64 }, ptr %22, i32 0, i32 1
  %28 = extractvalue { ptr, i64 } %24, 1
  store i64 %28, ptr %27, align 8
  %29 = getelementptr inbounds %"class.absl::debian2::string_view", ptr %22, i64 1
  %30 = load ptr, ptr %13, align 8, !tbaa !11
  %31 = call { ptr, i64 } @_ZNK4absl7debian28AlphaNum5PieceEv(ptr noundef nonnull align 8 dereferenceable(48) %30)
  %32 = getelementptr inbounds nuw { ptr, i64 }, ptr %29, i32 0, i32 0
  %33 = extractvalue { ptr, i64 } %31, 0
  store ptr %33, ptr %32, align 8
  %34 = getelementptr inbounds nuw { ptr, i64 }, ptr %29, i32 0, i32 1
  %35 = extractvalue { ptr, i64 } %31, 1
  store i64 %35, ptr %34, align 8
  %36 = getelementptr inbounds %"class.absl::debian2::string_view", ptr %22, i64 2
  %37 = load ptr, ptr %14, align 8, !tbaa !11
  %38 = call { ptr, i64 } @_ZNK4absl7debian28AlphaNum5PieceEv(ptr noundef nonnull align 8 dereferenceable(48) %37)
  %39 = getelementptr inbounds nuw { ptr, i64 }, ptr %36, i32 0, i32 0
  %40 = extractvalue { ptr, i64 } %38, 0
  store ptr %40, ptr %39, align 8
  %41 = getelementptr inbounds nuw { ptr, i64 }, ptr %36, i32 0, i32 1
  %42 = extractvalue { ptr, i64 } %38, 1
  store i64 %42, ptr %41, align 8
  %43 = getelementptr inbounds %"class.absl::debian2::string_view", ptr %22, i64 3
  %44 = load ptr, ptr %15, align 8, !tbaa !11
  %45 = call { ptr, i64 } @_ZNK4absl7debian28AlphaNum5PieceEv(ptr noundef nonnull align 8 dereferenceable(48) %44)
  %46 = getelementptr inbounds nuw { ptr, i64 }, ptr %43, i32 0, i32 0
  %47 = extractvalue { ptr, i64 } %45, 0
  store ptr %47, ptr %46, align 8
  %48 = getelementptr inbounds nuw { ptr, i64 }, ptr %43, i32 0, i32 1
  %49 = extractvalue { ptr, i64 } %45, 1
  store i64 %49, ptr %48, align 8
  %50 = getelementptr inbounds %"class.absl::debian2::string_view", ptr %22, i64 4
  %51 = load ptr, ptr %16, align 8, !tbaa !11
  %52 = call { ptr, i64 } @_ZNK4absl7debian28AlphaNum5PieceEv(ptr noundef nonnull align 8 dereferenceable(48) %51)
  %53 = getelementptr inbounds nuw { ptr, i64 }, ptr %50, i32 0, i32 0
  %54 = extractvalue { ptr, i64 } %52, 0
  store ptr %54, ptr %53, align 8
  %55 = getelementptr inbounds nuw { ptr, i64 }, ptr %50, i32 0, i32 1
  %56 = extractvalue { ptr, i64 } %52, 1
  store i64 %56, ptr %55, align 8
  %57 = getelementptr inbounds %"class.absl::debian2::string_view", ptr %22, i64 5
  %58 = load ptr, ptr %17, align 8, !tbaa !70
  %59 = call { ptr, i64 } @_ZNK4absl7debian28AlphaNum5PieceEv(ptr noundef nonnull align 8 dereferenceable(48) %58)
  %60 = getelementptr inbounds nuw { ptr, i64 }, ptr %57, i32 0, i32 0
  %61 = extractvalue { ptr, i64 } %59, 0
  store ptr %61, ptr %60, align 8
  %62 = getelementptr inbounds nuw { ptr, i64 }, ptr %57, i32 0, i32 1
  %63 = extractvalue { ptr, i64 } %59, 1
  store i64 %63, ptr %62, align 8
  %64 = getelementptr inbounds %"class.absl::debian2::string_view", ptr %22, i64 6
  %65 = load ptr, ptr %18, align 8, !tbaa !70
  %66 = call { ptr, i64 } @_ZNK4absl7debian28AlphaNum5PieceEv(ptr noundef nonnull align 8 dereferenceable(48) %65)
  %67 = getelementptr inbounds nuw { ptr, i64 }, ptr %64, i32 0, i32 0
  %68 = extractvalue { ptr, i64 } %66, 0
  store ptr %68, ptr %67, align 8
  %69 = getelementptr inbounds nuw { ptr, i64 }, ptr %64, i32 0, i32 1
  %70 = extractvalue { ptr, i64 } %66, 1
  store i64 %70, ptr %69, align 8
  %71 = getelementptr inbounds %"class.absl::debian2::string_view", ptr %22, i64 7
  %72 = load ptr, ptr %19, align 8, !tbaa !70
  %73 = call { ptr, i64 } @_ZNK4absl7debian28AlphaNum5PieceEv(ptr noundef nonnull align 8 dereferenceable(48) %72)
  %74 = getelementptr inbounds nuw { ptr, i64 }, ptr %71, i32 0, i32 0
  %75 = extractvalue { ptr, i64 } %73, 0
  store ptr %75, ptr %74, align 8
  %76 = getelementptr inbounds nuw { ptr, i64 }, ptr %71, i32 0, i32 1
  %77 = extractvalue { ptr, i64 } %73, 1
  store i64 %77, ptr %76, align 8
  %78 = getelementptr inbounds %"class.absl::debian2::string_view", ptr %22, i64 8
  %79 = load ptr, ptr %20, align 8, !tbaa !70
  %80 = call { ptr, i64 } @_ZNK4absl7debian28AlphaNum5PieceEv(ptr noundef nonnull align 8 dereferenceable(48) %79)
  %81 = getelementptr inbounds nuw { ptr, i64 }, ptr %78, i32 0, i32 0
  %82 = extractvalue { ptr, i64 } %80, 0
  store ptr %82, ptr %81, align 8
  %83 = getelementptr inbounds nuw { ptr, i64 }, ptr %78, i32 0, i32 1
  %84 = extractvalue { ptr, i64 } %80, 1
  store i64 %84, ptr %83, align 8
  %85 = getelementptr inbounds nuw %"class.std::initializer_list.6", ptr %21, i32 0, i32 0
  store ptr %22, ptr %85, align 8, !tbaa !74
  %86 = getelementptr inbounds nuw %"class.std::initializer_list.6", ptr %21, i32 0, i32 1
  store i64 9, ptr %86, align 8, !tbaa !76
  %87 = getelementptr inbounds nuw { ptr, i64 }, ptr %21, i32 0, i32 0
  %88 = load ptr, ptr %87, align 8
  %89 = getelementptr inbounds nuw { ptr, i64 }, ptr %21, i32 0, i32 1
  %90 = load i64, ptr %89, align 8
  call void @_ZN4absl7debian216strings_internal9CatPiecesB5cxx11ESt16initializer_listINS0_11string_viewEE(ptr dead_on_unwind writable sret(%"class.std::__cxx11::basic_string") align 8 %0, ptr %88, i64 %90)
  call void @llvm.lifetime.end.p0(i64 144, ptr %22) #16
  ret void
}

; Function Attrs: mustprogress uwtable
define dso_local void @_ZN4i18n12phonenumbers6StrCatB5cxx11ERKNS0_12StringHolderES3_S3_S3_S3_S3_S3_S3_S3_(ptr dead_on_unwind noalias writable sret(%"class.std::__cxx11::basic_string") align 8 %0, ptr noundef nonnull align 8 dereferenceable(48) %1, ptr noundef nonnull align 8 dereferenceable(48) %2, ptr noundef nonnull align 8 dereferenceable(48) %3, ptr noundef nonnull align 8 dereferenceable(48) %4, ptr noundef nonnull align 8 dereferenceable(48) %5, ptr noundef nonnull align 8 dereferenceable(48) %6, ptr noundef nonnull align 8 dereferenceable(48) %7, ptr noundef nonnull align 8 dereferenceable(48) %8, ptr noundef nonnull align 8 dereferenceable(48) %9) #0 {
  %11 = alloca ptr, align 8
  %12 = alloca ptr, align 8
  %13 = alloca ptr, align 8
  %14 = alloca ptr, align 8
  %15 = alloca ptr, align 8
  %16 = alloca ptr, align 8
  %17 = alloca ptr, align 8
  %18 = alloca ptr, align 8
  %19 = alloca ptr, align 8
  %20 = alloca ptr, align 8
  store ptr %0, ptr %11, align 8
  store ptr %1, ptr %12, align 8, !tbaa !70
  store ptr %2, ptr %13, align 8, !tbaa !70
  store ptr %3, ptr %14, align 8, !tbaa !70
  store ptr %4, ptr %15, align 8, !tbaa !70
  store ptr %5, ptr %16, align 8, !tbaa !70
  store ptr %6, ptr %17, align 8, !tbaa !70
  store ptr %7, ptr %18, align 8, !tbaa !70
  store ptr %8, ptr %19, align 8, !tbaa !70
  store ptr %9, ptr %20, align 8, !tbaa !70
  %21 = load ptr, ptr %12, align 8, !tbaa !70
  %22 = load ptr, ptr %13, align 8, !tbaa !70
  %23 = load ptr, ptr %14, align 8, !tbaa !70
  %24 = load ptr, ptr %15, align 8, !tbaa !70
  %25 = load ptr, ptr %16, align 8, !tbaa !70
  %26 = load ptr, ptr %17, align 8, !tbaa !70
  %27 = load ptr, ptr %18, align 8, !tbaa !70
  %28 = load ptr, ptr %19, align 8, !tbaa !70
  %29 = load ptr, ptr %20, align 8, !tbaa !70
  call void @_ZN4absl7debian26StrCatIJN4i18n12phonenumbers12StringHolderES4_S4_S4_EEENSt7__cxx1112basic_stringIcSt11char_traitsIcESaIcEEERKNS0_8AlphaNumESD_SD_SD_SD_DpRKT_(ptr dead_on_unwind writable sret(%"class.std::__cxx11::basic_string") align 8 %0, ptr noundef nonnull align 8 dereferenceable(48) %21, ptr noundef nonnull align 8 dereferenceable(48) %22, ptr noundef nonnull align 8 dereferenceable(48) %23, ptr noundef nonnull align 8 dereferenceable(48) %24, ptr noundef nonnull align 8 dereferenceable(48) %25, ptr noundef nonnull align 8 dereferenceable(48) %26, ptr noundef nonnull align 8 dereferenceable(48) %27, ptr noundef nonnull align 8 dereferenceable(48) %28, ptr noundef nonnull align 8 dereferenceable(48) %29)
  ret void
}