; Function Attrs: mustprogress uwtable
define dso_local void @_ZN4i18n12phonenumbers6StrCatB5cxx11ERKNS0_12StringHolderES3_S3_S3_S3_S3_S3_S3_S3_(ptr dead_on_unwind noalias writable sret(%"class.std::__cxx11::basic_string") align 8 %0, ptr noundef nonnull readonly align 8 captures(none) dereferenceable(48) %1, ptr noundef nonnull readonly align 8 captures(none) dereferenceable(48) %2, ptr noundef nonnull readonly align 8 captures(none) dereferenceable(48) %3, ptr noundef nonnull readonly align 8 captures(none) dereferenceable(48) %4, ptr noundef nonnull readonly align 8 captures(none) dereferenceable(48) %5, ptr noundef nonnull readonly align 8 captures(none) dereferenceable(48) %6, ptr noundef nonnull readonly align 8 captures(none) dereferenceable(48) %7, ptr noundef nonnull readonly align 8 captures(none) dereferenceable(48) %8, ptr noundef nonnull readonly align 8 captures(none) dereferenceable(48) %9) local_unnamed_addr #0 {
  %11 = alloca [9 x %"class.absl::debian2::string_view"], align 8
  call void @llvm.lifetime.start.p0(i64 144, ptr nonnull %11) #19, !noalias !76
  %.sroa.0.0.copyload.i.i = load ptr, ptr %1, align 8, !tbaa !31, !noalias !76
  %.sroa.2.0..sroa_idx.i.i = getelementptr inbounds nuw i8, ptr %1, i64 8
  %.sroa.2.0.copyload.i.i = load i64, ptr %.sroa.2.0..sroa_idx.i.i, align 8, !tbaa !22, !noalias !76
  store ptr %.sroa.0.0.copyload.i.i, ptr %11, align 8, !noalias !76
  %12 = getelementptr inbounds nuw i8, ptr %11, i64 8
  store i64 %.sroa.2.0.copyload.i.i, ptr %12, align 8, !noalias !76
  %13 = getelementptr inbounds nuw i8, ptr %11, i64 16
  %.sroa.0.0.copyload.i9.i = load ptr, ptr %2, align 8, !tbaa !31, !noalias !76
  %.sroa.2.0..sroa_idx.i10.i = getelementptr inbounds nuw i8, ptr %2, i64 8
  %.sroa.2.0.copyload.i11.i = load i64, ptr %.sroa.2.0..sroa_idx.i10.i, align 8, !tbaa !22, !noalias !76
  store ptr %.sroa.0.0.copyload.i9.i, ptr %13, align 8, !noalias !76
  %14 = getelementptr inbounds nuw i8, ptr %11, i64 24
  store i64 %.sroa.2.0.copyload.i11.i, ptr %14, align 8, !noalias !76
  %15 = getelementptr inbounds nuw i8, ptr %11, i64 32
  %.sroa.0.0.copyload.i14.i = load ptr, ptr %3, align 8, !tbaa !31, !noalias !76
  %.sroa.2.0..sroa_idx.i15.i = getelementptr inbounds nuw i8, ptr %3, i64 8
  %.sroa.2.0.copyload.i16.i = load i64, ptr %.sroa.2.0..sroa_idx.i15.i, align 8, !tbaa !22, !noalias !76
  store ptr %.sroa.0.0.copyload.i14.i, ptr %15, align 8, !noalias !76
  %16 = getelementptr inbounds nuw i8, ptr %11, i64 40
  store i64 %.sroa.2.0.copyload.i16.i, ptr %16, align 8, !noalias !76
  %17 = getelementptr inbounds nuw i8, ptr %11, i64 48
  %.sroa.0.0.copyload.i19.i = load ptr, ptr %4, align 8, !tbaa !31, !noalias !76
  %.sroa.2.0..sroa_idx.i20.i = getelementptr inbounds nuw i8, ptr %4, i64 8
  %.sroa.2.0.copyload.i21.i = load i64, ptr %.sroa.2.0..sroa_idx.i20.i, align 8, !tbaa !22, !noalias !76
  store ptr %.sroa.0.0.copyload.i19.i, ptr %17, align 8, !noalias !76
  %18 = getelementptr inbounds nuw i8, ptr %11, i64 56
  store i64 %.sroa.2.0.copyload.i21.i, ptr %18, align 8, !noalias !76
  %19 = getelementptr inbounds nuw i8, ptr %11, i64 64
  %.sroa.0.0.copyload.i24.i = load ptr, ptr %5, align 8, !tbaa !31, !noalias !76
  %.sroa.2.0..sroa_idx.i25.i = getelementptr inbounds nuw i8, ptr %5, i64 8
  %.sroa.2.0.copyload.i26.i = load i64, ptr %.sroa.2.0..sroa_idx.i25.i, align 8, !tbaa !22, !noalias !76
  store ptr %.sroa.0.0.copyload.i24.i, ptr %19, align 8, !noalias !76
  %20 = getelementptr inbounds nuw i8, ptr %11, i64 72
  store i64 %.sroa.2.0.copyload.i26.i, ptr %20, align 8, !noalias !76
  %21 = getelementptr inbounds nuw i8, ptr %11, i64 80
  %.sroa.0.0.copyload.i29.i = load ptr, ptr %6, align 8, !tbaa !31, !noalias !76
  %.sroa.2.0..sroa_idx.i30.i = getelementptr inbounds nuw i8, ptr %6, i64 8
  %.sroa.2.0.copyload.i31.i = load i64, ptr %.sroa.2.0..sroa_idx.i30.i, align 8, !tbaa !22, !noalias !76
  store ptr %.sroa.0.0.copyload.i29.i, ptr %21, align 8, !noalias !76
  %22 = getelementptr inbounds nuw i8, ptr %11, i64 88
  store i64 %.sroa.2.0.copyload.i31.i, ptr %22, align 8, !noalias !76
  %23 = getelementptr inbounds nuw i8, ptr %11, i64 96
  %.sroa.0.0.copyload.i34.i = load ptr, ptr %7, align 8, !tbaa !31, !noalias !76
  %.sroa.2.0..sroa_idx.i35.i = getelementptr inbounds nuw i8, ptr %7, i64 8
  %.sroa.2.0.copyload.i36.i = load i64, ptr %.sroa.2.0..sroa_idx.i35.i, align 8, !tbaa !22, !noalias !76
  store ptr %.sroa.0.0.copyload.i34.i, ptr %23, align 8, !noalias !76
  %24 = getelementptr inbounds nuw i8, ptr %11, i64 104
  store i64 %.sroa.2.0.copyload.i36.i, ptr %24, align 8, !noalias !76
  %25 = getelementptr inbounds nuw i8, ptr %11, i64 112
  %.sroa.0.0.copyload.i39.i = load ptr, ptr %8, align 8, !tbaa !31, !noalias !76
  %.sroa.2.0..sroa_idx.i40.i = getelementptr inbounds nuw i8, ptr %8, i64 8
  %.sroa.2.0.copyload.i41.i = load i64, ptr %.sroa.2.0..sroa_idx.i40.i, align 8, !tbaa !22, !noalias !76
  store ptr %.sroa.0.0.copyload.i39.i, ptr %25, align 8, !noalias !76
  %26 = getelementptr inbounds nuw i8, ptr %11, i64 120
  store i64 %.sroa.2.0.copyload.i41.i, ptr %26, align 8, !noalias !76
  %27 = getelementptr inbounds nuw i8, ptr %11, i64 128
  %.sroa.0.0.copyload.i44.i = load ptr, ptr %9, align 8, !tbaa !31, !noalias !76
  %.sroa.2.0..sroa_idx.i45.i = getelementptr inbounds nuw i8, ptr %9, i64 8
  %.sroa.2.0.copyload.i46.i = load i64, ptr %.sroa.2.0..sroa_idx.i45.i, align 8, !tbaa !22, !noalias !76
  store ptr %.sroa.0.0.copyload.i44.i, ptr %27, align 8, !noalias !76
  %28 = getelementptr inbounds nuw i8, ptr %11, i64 136
  store i64 %.sroa.2.0.copyload.i46.i, ptr %28, align 8, !noalias !76
  call void @_ZN4absl7debian216strings_internal9CatPiecesB5cxx11ESt16initializer_listINS0_11string_viewEE(ptr dead_on_unwind writable sret(%"class.std::__cxx11::basic_string") align 8 %0, ptr nonnull %11, i64 9)
  call void @llvm.lifetime.end.p0(i64 144, ptr nonnull %11) #19, !noalias !76
  ret void
}